; Function Attrs: inlinehint nounwind sspstrong uwtable
define internal fastcc i64 @f_div(i64 noundef %0, i64 noundef %1) unnamed_addr #4 {
  %3 = icmp eq i64 %1, 3
  br i1 %3, label %17, label %4

4:                                                ; preds = %2
  %5 = and i64 %0, 1
  %.not.i = icmp eq i64 %5, 0
  br i1 %.not.i, label %6, label %rb_integer_type_p.exit.thread

6:                                                ; preds = %4
  %7 = icmp eq i64 %0, 0
  %8 = and i64 %0, 6
  %9 = icmp ne i64 %8, 0
  %10 = or i1 %7, %9
  br i1 %10, label %rb_integer_type_p.exit.thread10, label %rb_integer_type_p.exit

rb_integer_type_p.exit:                           ; preds = %6
  %11 = inttoptr i64 %0 to ptr
  %12 = load i64, ptr %11, align 8, !tbaa !7
  %13 = and i64 %12, 31
  %14 = icmp eq i64 %13, 10
  br i1 %14, label %rb_integer_type_p.exit.thread, label %rb_integer_type_p.exit.thread10

rb_integer_type_p.exit.thread:                    ; preds = %4, %rb_integer_type_p.exit
  %15 = tail call i64 @rb_int_div(i64 noundef %0, i64 noundef %1) #17
  br label %17

rb_integer_type_p.exit.thread10:                  ; preds = %6, %rb_integer_type_p.exit
  %16 = tail call i64 (i64, i64, i32, ...) @rb_funcall(i64 noundef %0, i64 noundef 47, i32 noundef 1, i64 noundef %1) #17
  br label %17

17:                                               ; preds = %2, %rb_integer_type_p.exit.thread10, %rb_integer_type_p.exit.thread
  %.0 = phi i64 [ %15, %rb_integer_type_p.exit.thread ], [ %16, %rb_integer_type_p.exit.thread10 ], [ %0, %2 ]
  ret i64 %.0
}